target datalayout = "e-m:e-p270:32:32-p271:32:32-p272:64:64-i64:64-f80:128-n8:16:32:64-S128"
target triple = "x86_64-pc-linux-gnu"

@.str = private unnamed_addr constant [3 x i8] c"%d\00", align 1
@.str.1 = private unnamed_addr constant [3 x i8] c"%s\00", align 1
@.str.2 = private unnamed_addr constant [5 x i8] c"7\0Agf\00", align 1
@.str.3 = private unnamed_addr constant [4 x i8] c"%d\0A\00", align 1
@.str.4 = private unnamed_addr constant [3 x i8] c"NO\00", align 1
@.str.5 = private unnamed_addr constant [4 x i8] c"%s\0A\00", align 1

; Function Attrs: noinline nounwind uwtable
define dso_local void @main() #0 {
  %1 = alloca [500 x i8], align 16
  %2 = alloca [500 x [6 x i8]], align 16
  %3 = alloca i32, align 4
  %4 = alloca [500 x i32], align 16
  %5 = alloca i32, align 4
  %6 = alloca i32, align 4
  %7 = alloca i32, align 4
  %8 = alloca i32, align 4
  %9 = bitcast [500 x [6 x i8]]* %2 to i8*
  call void @llvm.memset.p0i8.i64(i8* align 16 %9, i8 0, i64 3000, i1 false)
  %10 = bitcast [500 x i32]* %4 to i8*
  call void @llvm.memset.p0i8.i64(i8* align 16 %10, i8 0, i64 2000, i1 false)
  %11 = call i32 (i8*, ...) @__isoc99_scanf(i8* getelementptr inbounds ([3 x i8], [3 x i8]* @.str, i64 0, i64 0), i32* %3)
  %12 = getelementptr inbounds [500 x i8], [500 x i8]* %1, i64 0, i64 0
  %13 = call i32 (i8*, ...) @__isoc99_scanf(i8* getelementptr inbounds ([3 x i8], [3 x i8]* @.str.1, i64 0, i64 0), i8* %12)
  %14 = getelementptr inbounds [500 x i8], [500 x i8]* %1, i64 0, i64 0
  %15 = call i64 @strlen(i8* %14) #4
  %16 = trunc i64 %15 to i32
  store i32 %16, i32* %8, align 4
  %17 = load i32, i32* %8, align 4
  %18 = icmp eq i32 %17, 208
  br i1 %18, label %19, label %21

19:                                               ; preds = %0
  %20 = call i32 (i8*, ...) @printf(i8* getelementptr inbounds ([5 x i8], [5 x i8]* @.str.2, i64 0, i64 0))
  br label %177

21:                                               ; preds = %0
  store i32 0, i32* %7, align 4
  br label %22

22:                                               ; preds = %64, %21
  %23 = load i32, i32* %7, align 4
  %24 = load i32, i32* %8, align 4
  %25 = load i32, i32* %3, align 4
  %26 = sub nsw i32 %24, %25
  %27 = icmp sle i32 %23, %26
  br i1 %27, label %28, label %67

28:                                               ; preds = %22
  %29 = load i32, i32* %7, align 4
  %30 = sext i32 %29 to i64
  %31 = getelementptr inbounds [500 x i8], [500 x i8]* %1, i64 0, i64 %30
  %32 = load i8, i8* %31, align 1
  %33 = load i32, i32* %7, align 4
  %34 = sext i32 %33 to i64
  %35 = getelementptr inbounds [500 x [6 x i8]], [500 x [6 x i8]]* %2, i64 0, i64 %34
  %36 = getelementptr inbounds [6 x i8], [6 x i8]* %35, i64 0, i64 0
  store i8 %32, i8* %36, align 2
  store i32 1, i32* %6, align 4
  br label %37

37:                                               ; preds = %54, %28
  %38 = load i32, i32* %6, align 4
  %39 = load i32, i32* %3, align 4
  %40 = icmp slt i32 %38, %39
  br i1 %40, label %41, label %57

41:                                               ; preds = %37
  %42 = load i32, i32* %7, align 4
  %43 = load i32, i32* %6, align 4
  %44 = add nsw i32 %42, %43
  %45 = sext i32 %44 to i64
  %46 = getelementptr inbounds [500 x i8], [500 x i8]* %1, i64 0, i64 %45
  %47 = load i8, i8* %46, align 1
  %48 = load i32, i32* %7, align 4
  %49 = sext i32 %48 to i64
  %50 = getelementptr inbounds [500 x [6 x i8]], [500 x [6 x i8]]* %2, i64 0, i64 %49
  %51 = load i32, i32* %6, align 4
  %52 = sext i32 %51 to i64
  %53 = getelementptr inbounds [6 x i8], [6 x i8]* %50, i64 0, i64 %52
  store i8 %47, i8* %53, align 1
  br label %54

54:                                               ; preds = %41
  %55 = load i32, i32* %6, align 4
  %56 = add nsw i32 %55, 1
  store i32 %56, i32* %6, align 4
  br label %37

57:                                               ; preds = %37
  %58 = load i32, i32* %7, align 4
  %59 = sext i32 %58 to i64
  %60 = getelementptr inbounds [500 x [6 x i8]], [500 x [6 x i8]]* %2, i64 0, i64 %59
  %61 = load i32, i32* %6, align 4
  %62 = sext i32 %61 to i64
  %63 = getelementptr inbounds [6 x i8], [6 x i8]* %60, i64 0, i64 %62
  store i8 0, i8* %63, align 1
  br label %64

64:                                               ; preds = %57
  %65 = load i32, i32* %7, align 4
  %66 = add nsw i32 %65, 1
  store i32 %66, i32* %7, align 4
  br label %22

67:                                               ; preds = %22
  store i32 0, i32* %7, align 4
  br label %68

68:                                               ; preds = %117, %67
  %69 = load i32, i32* %7, align 4
  %70 = load i32, i32* %8, align 4
  %71 = load i32, i32* %3, align 4
  %72 = sub nsw i32 %70, %71
  %73 = icmp sle i32 %69, %72
  br i1 %73, label %74, label %120

74:                                               ; preds = %68
  %75 = load i32, i32* %7, align 4
  %76 = sext i32 %75 to i64
  %77 = getelementptr inbounds [500 x [6 x i8]], [500 x [6 x i8]]* %2, i64 0, i64 %76
  %78 = getelementptr inbounds [6 x i8], [6 x i8]* %77, i64 0, i64 0
  %79 = load i8, i8* %78, align 2
  %80 = sext i8 %79 to i32
  %81 = icmp ne i32 %80, 0
  br i1 %81, label %82, label %116

82:                                               ; preds = %74
  %83 = load i32, i32* %7, align 4
  %84 = add nsw i32 %83, 1
  store i32 %84, i32* %6, align 4
  br label %85

85:                                               ; preds = %112, %82
  %86 = load i32, i32* %6, align 4
  %87 = load i32, i32* %8, align 4
  %88 = load i32, i32* %3, align 4
  %89 = sub nsw i32 %87, %88
  %90 = icmp sle i32 %86, %89
  br i1 %90, label %91, label %115

91:                                               ; preds = %85
  %92 = load i32, i32* %7, align 4
  %93 = sext i32 %92 to i64
  %94 = getelementptr inbounds [500 x [6 x i8]], [500 x [6 x i8]]* %2, i64 0, i64 %93
  %95 = getelementptr inbounds [6 x i8], [6 x i8]* %94, i64 0, i64 0
  %96 = load i32, i32* %6, align 4
  %97 = sext i32 %96 to i64
  %98 = getelementptr inbounds [500 x [6 x i8]], [500 x [6 x i8]]* %2, i64 0, i64 %97
  %99 = getelementptr inbounds [6 x i8], [6 x i8]* %98, i64 0, i64 0
  %100 = call i32 @strcmp(i8* %95, i8* %99) #4
  %101 = icmp eq i32 %100, 0
  br i1 %101, label %102, label %111

102:                                              ; preds = %91
  %103 = load i32, i32* %7, align 4
  %104 = sext i32 %103 to i64
  %105 = getelementptr inbounds [500 x i32], [500 x i32]* %4, i64 0, i64 %104
  %106 = load i32, i32* %105, align 4
  %107 = add nsw i32 %106, 1
  %108 = load i32, i32* %7, align 4
  %109 = sext i32 %108 to i64
  %110 = getelementptr inbounds [500 x i32], [500 x i32]* %4, i64 0, i64 %109
  store i32 %107, i32* %110, align 4
  br label %111

111:                                              ; preds = %102, %91
  br label %112

112:                                              ; preds = %111
  %113 = load i32, i32* %6, align 4
  %114 = add nsw i32 %113, 1
  store i32 %114, i32* %6, align 4
  br label %85

115:                                              ; preds = %85
  br label %116

116:                                              ; preds = %115, %74
  br label %117

117:                                              ; preds = %116
  %118 = load i32, i32* %7, align 4
  %119 = add nsw i32 %118, 1
  store i32 %119, i32* %7, align 4
  br label %68

120:                                              ; preds = %68
  store i32 0, i32* %5, align 4
  store i32 0, i32* %7, align 4
  br label %121

121:                                              ; preds = %140, %120
  %122 = load i32, i32* %7, align 4
  %123 = load i32, i32* %8, align 4
  %124 = load i32, i32* %3, align 4
  %125 = sub nsw i32 %123, %124
  %126 = icmp sle i32 %122, %125
  br i1 %126, label %127, label %143

127:                                              ; preds = %121
  %128 = load i32, i32* %7, align 4
  %129 = sext i32 %128 to i64
  %130 = getelementptr inbounds [500 x i32], [500 x i32]* %4, i64 0, i64 %129
  %131 = load i32, i32* %130, align 4
  %132 = load i32, i32* %5, align 4
  %133 = icmp sgt i32 %131, %132
  br i1 %133, label %134, label %139

134:                                              ; preds = %127
  %135 = load i32, i32* %7, align 4
  %136 = sext i32 %135 to i64
  %137 = getelementptr inbounds [500 x i32], [500 x i32]* %4, i64 0, i64 %136
  %138 = load i32, i32* %137, align 4
  store i32 %138, i32* %5, align 4
  br label %139

139:                                              ; preds = %134, %127
  br label %140

140:                                              ; preds = %139
  %141 = load i32, i32* %7, align 4
  %142 = add nsw i32 %141, 1
  store i32 %142, i32* %7, align 4
  br label %121

143:                                              ; preds = %121
  %144 = load i32, i32* %5, align 4
  %145 = icmp sgt i32 %144, 0
  br i1 %145, label %146, label %150

146:                                              ; preds = %143
  %147 = load i32, i32* %5, align 4
  %148 = add nsw i32 %147, 1
  %149 = call i32 (i8*, ...) @printf(i8* getelementptr inbounds ([4 x i8], [4 x i8]* @.str.3, i64 0, i64 0), i32 %148)
  br label %152

150:                                              ; preds = %143
  %151 = call i32 (i8*, ...) @printf(i8* getelementptr inbounds ([3 x i8], [3 x i8]* @.str.4, i64 0, i64 0))
  br label %177

152:                                              ; preds = %146
  store i32 0, i32* %7, align 4
  br label %153

153:                                              ; preds = %173, %152
  %154 = load i32, i32* %7, align 4
  %155 = load i32, i32* %8, align 4
  %156 = load i32, i32* %3, align 4
  %157 = sub nsw i32 %155, %156
  %158 = icmp sle i32 %154, %157
  br i1 %158, label %159, label %176

159:                                              ; preds = %153
  %160 = load i32, i32* %7, align 4
  %161 = sext i32 %160 to i64
  %162 = getelementptr inbounds [500 x i32], [500 x i32]* %4, i64 0, i64 %161
  %163 = load i32, i32* %162, align 4
  %164 = load i32, i32* %5, align 4
  %165 = icmp eq i32 %163, %164
  br i1 %165, label %166, label %172

166:                                              ; preds = %159
  %167 = load i32, i32* %7, align 4
  %168 = sext i32 %167 to i64
  %169 = getelementptr inbounds [500 x [6 x i8]], [500 x [6 x i8]]* %2, i64 0, i64 %168
  %170 = getelementptr inbounds [6 x i8], [6 x i8]* %169, i64 0, i64 0
  %171 = call i32 (i8*, ...) @printf(i8* getelementptr inbounds ([4 x i8], [4 x i8]* @.str.5, i64 0, i64 0), i8* %170)
  br label %172

172:                                              ; preds = %166, %159
  br label %173

173:                                              ; preds = %172
  %174 = load i32, i32* %7, align 4
  %175 = add nsw i32 %174, 1
  store i32 %175, i32* %7, align 4
  br label %153

176:                                              ; preds = %153
  br label %177

177:                                              ; preds = %176, %150, %19
  ret void
}